target datalayout = "e-m:e-p270:32:32-p271:32:32-p272:64:64-i64:64-i128:128-f80:128-n8:16:32:64-S128"
target triple = "x86_64-pc-linux-gnu"

%union.anon.1 = type { i64, [24 x i8] }

; Function Attrs: nounwind uwtable
define i64 @CRYPTO_cts128_decrypt_block(ptr noundef %0, ptr noundef %1, i64 noundef %2, ptr noundef %3, ptr noundef %4, ptr noundef %5) #0 {
  %7 = alloca i64, align 8
  %8 = alloca ptr, align 8
  %9 = alloca ptr, align 8
  %10 = alloca i64, align 8
  %11 = alloca ptr, align 8
  %12 = alloca ptr, align 8
  %13 = alloca ptr, align 8
  %14 = alloca i64, align 8
  %15 = alloca i64, align 8
  %16 = alloca %union.anon.1, align 8
  %17 = alloca i32, align 4
  %18 = alloca i8, align 1
  store ptr %0, ptr %8, align 8, !tbaa !3
  store ptr %1, ptr %9, align 8, !tbaa !3
  store i64 %2, ptr %10, align 8, !tbaa !8
  store ptr %3, ptr %11, align 8, !tbaa !10
  store ptr %4, ptr %12, align 8, !tbaa !3
  store ptr %5, ptr %13, align 8, !tbaa !10
  call void @llvm.lifetime.start.p0(i64 8, ptr %14) #5
  call void @llvm.lifetime.start.p0(i64 8, ptr %15) #5
  call void @llvm.lifetime.start.p0(i64 32, ptr %16) #5
  %19 = load i64, ptr %10, align 8, !tbaa !8
  %20 = icmp ule i64 %19, 16
  br i1 %20, label %21, label %22

21:                                               ; preds = %6
  store i64 0, ptr %7, align 8
  store i32 1, ptr %17, align 4
  br label %123

22:                                               ; preds = %6
  %23 = load i64, ptr %10, align 8, !tbaa !8
  %24 = urem i64 %23, 16
  store i64 %24, ptr %14, align 8, !tbaa !8
  %25 = icmp eq i64 %24, 0
  br i1 %25, label %26, label %27

26:                                               ; preds = %22
  store i64 16, ptr %14, align 8, !tbaa !8
  br label %27

27:                                               ; preds = %26, %22
  %28 = load i64, ptr %14, align 8, !tbaa !8
  %29 = add i64 16, %28
  %30 = load i64, ptr %10, align 8, !tbaa !8
  %31 = sub i64 %30, %29
  store i64 %31, ptr %10, align 8, !tbaa !8
  %32 = load i64, ptr %10, align 8, !tbaa !8
  %33 = icmp ne i64 %32, 0
  br i1 %33, label %34, label %47

34:                                               ; preds = %27
  %35 = load ptr, ptr %8, align 8, !tbaa !3
  %36 = load ptr, ptr %9, align 8, !tbaa !3
  %37 = load i64, ptr %10, align 8, !tbaa !8
  %38 = load ptr, ptr %11, align 8, !tbaa !10
  %39 = load ptr, ptr %12, align 8, !tbaa !3
  %40 = load ptr, ptr %13, align 8, !tbaa !10
  call void @CRYPTO_cbc128_decrypt(ptr noundef %35, ptr noundef %36, i64 noundef %37, ptr noundef %38, ptr noundef %39, ptr noundef %40)
  %41 = load i64, ptr %10, align 8, !tbaa !8
  %42 = load ptr, ptr %8, align 8, !tbaa !3
  %43 = getelementptr inbounds nuw i8, ptr %42, i64 %41
  store ptr %43, ptr %8, align 8, !tbaa !3
  %44 = load i64, ptr %10, align 8, !tbaa !8
  %45 = load ptr, ptr %9, align 8, !tbaa !3
  %46 = getelementptr inbounds nuw i8, ptr %45, i64 %44
  store ptr %46, ptr %9, align 8, !tbaa !3
  br label %47

47:                                               ; preds = %34, %27
  %48 = load ptr, ptr %13, align 8, !tbaa !10
  %49 = load ptr, ptr %8, align 8, !tbaa !3
  %50 = getelementptr inbounds [32 x i8], ptr %16, i64 0, i64 0
  %51 = getelementptr inbounds i8, ptr %50, i64 16
  %52 = load ptr, ptr %11, align 8, !tbaa !10
  call void %48(ptr noundef %49, ptr noundef %51, ptr noundef %52)
  %53 = getelementptr inbounds [32 x i8], ptr %16, i64 0, i64 0
  %54 = getelementptr inbounds [32 x i8], ptr %16, i64 0, i64 0
  %55 = getelementptr inbounds i8, ptr %54, i64 16
  call void @llvm.memcpy.p0.p0.i64(ptr align 8 %53, ptr align 1 %55, i64 16, i1 false)
  %56 = getelementptr inbounds [32 x i8], ptr %16, i64 0, i64 0
  %57 = load ptr, ptr %8, align 8, !tbaa !3
  %58 = getelementptr inbounds i8, ptr %57, i64 16
  %59 = load i64, ptr %14, align 8, !tbaa !8
  call void @llvm.memcpy.p0.p0.i64(ptr align 8 %56, ptr align 1 %58, i64 %59, i1 false)
  %60 = load ptr, ptr %13, align 8, !tbaa !10
  %61 = getelementptr inbounds [32 x i8], ptr %16, i64 0, i64 0
  %62 = getelementptr inbounds [32 x i8], ptr %16, i64 0, i64 0
  %63 = load ptr, ptr %11, align 8, !tbaa !10
  call void %60(ptr noundef %61, ptr noundef %62, ptr noundef %63)
  store i64 0, ptr %15, align 8, !tbaa !8
  br label %64

64:                                               ; preds = %90, %47
  %65 = load i64, ptr %15, align 8, !tbaa !8
  %66 = icmp ult i64 %65, 16
  br i1 %66, label %67, label %93

67:                                               ; preds = %64
  call void @llvm.lifetime.start.p0(i64 1, ptr %18) #5
  %68 = load ptr, ptr %8, align 8, !tbaa !3
  %69 = load i64, ptr %15, align 8, !tbaa !8
  %70 = getelementptr inbounds nuw i8, ptr %68, i64 %69
  %71 = load i8, ptr %70, align 1, !tbaa !11
  store i8 %71, ptr %18, align 1, !tbaa !11
  %72 = load i64, ptr %15, align 8, !tbaa !8
  %73 = getelementptr inbounds nuw [32 x i8], ptr %16, i64 0, i64 %72
  %74 = load i8, ptr %73, align 1, !tbaa !11
  %75 = zext i8 %74 to i32
  %76 = load ptr, ptr %12, align 8, !tbaa !3
  %77 = load i64, ptr %15, align 8, !tbaa !8
  %78 = getelementptr inbounds nuw i8, ptr %76, i64 %77
  %79 = load i8, ptr %78, align 1, !tbaa !11
  %80 = zext i8 %79 to i32
  %81 = xor i32 %75, %80
  %82 = trunc i32 %81 to i8
  %83 = load ptr, ptr %9, align 8, !tbaa !3
  %84 = load i64, ptr %15, align 8, !tbaa !8
  %85 = getelementptr inbounds nuw i8, ptr %83, i64 %84
  store i8 %82, ptr %85, align 1, !tbaa !11
  %86 = load i8, ptr %18, align 1, !tbaa !11
  %87 = load ptr, ptr %12, align 8, !tbaa !3
  %88 = load i64, ptr %15, align 8, !tbaa !8
  %89 = getelementptr inbounds nuw i8, ptr %87, i64 %88
  store i8 %86, ptr %89, align 1, !tbaa !11
  call void @llvm.lifetime.end.p0(i64 1, ptr %18) #5
  br label %90

90:                                               ; preds = %67
  %91 = load i64, ptr %15, align 8, !tbaa !8
  %92 = add i64 %91, 1
  store i64 %92, ptr %15, align 8, !tbaa !8
  br label %64, !llvm.loop !15

93:                                               ; preds = %64
  %94 = load i64, ptr %14, align 8, !tbaa !8
  %95 = add i64 %94, 16
  store i64 %95, ptr %14, align 8, !tbaa !8
  br label %96

96:                                               ; preds = %115, %93
  %97 = load i64, ptr %15, align 8, !tbaa !8
  %98 = load i64, ptr %14, align 8, !tbaa !8
  %99 = icmp ult i64 %97, %98
  br i1 %99, label %100, label %118

100:                                              ; preds = %96
  %101 = load i64, ptr %15, align 8, !tbaa !8
  %102 = getelementptr inbounds nuw [32 x i8], ptr %16, i64 0, i64 %101
  %103 = load i8, ptr %102, align 1, !tbaa !11
  %104 = zext i8 %103 to i32
  %105 = load ptr, ptr %8, align 8, !tbaa !3
  %106 = load i64, ptr %15, align 8, !tbaa !8
  %107 = getelementptr inbounds nuw i8, ptr %105, i64 %106
  %108 = load i8, ptr %107, align 1, !tbaa !11
  %109 = zext i8 %108 to i32
  %110 = xor i32 %104, %109
  %111 = trunc i32 %110 to i8
  %112 = load ptr, ptr %9, align 8, !tbaa !3
  %113 = load i64, ptr %15, align 8, !tbaa !8
  %114 = getelementptr inbounds nuw i8, ptr %112, i64 %113
  store i8 %111, ptr %114, align 1, !tbaa !11
  br label %115

115:                                              ; preds = %100
  %116 = load i64, ptr %15, align 8, !tbaa !8
  %117 = add i64 %116, 1
  store i64 %117, ptr %15, align 8, !tbaa !8
  br label %96, !llvm.loop !16

118:                                              ; preds = %96
  %119 = load i64, ptr %10, align 8, !tbaa !8
  %120 = add i64 16, %119
  %121 = load i64, ptr %14, align 8, !tbaa !8
  %122 = add i64 %120, %121
  store i64 %122, ptr %7, align 8
  store i32 1, ptr %17, align 4
  br label %123

123:                                              ; preds = %118, %21
  call void @llvm.lifetime.end.p0(i64 32, ptr %16) #5
  call void @llvm.lifetime.end.p0(i64 8, ptr %15) #5
  call void @llvm.lifetime.end.p0(i64 8, ptr %14) #5
  %124 = load i64, ptr %7, align 8
  ret i64 %124
}