; Function Attrs: nounwind uwtable
define noundef i64 @CRYPTO_cts128_decrypt_block(ptr noundef %0, ptr noundef %1, i64 noundef %2, ptr noundef %3, ptr noundef %4, ptr noundef %5) local_unnamed_addr #0 {
  %7 = alloca %union.anon.1, align 8
  call void @llvm.lifetime.start.p0(i64 32, ptr nonnull %7) #5
  %8 = icmp ult i64 %2, 17
  br i1 %8, label %38, label %9

9:                                                ; preds = %6
  %10 = and i64 %2, 15
  %11 = icmp eq i64 %10, 0
  %spec.store.select = select i1 %11, i64 16, i64 %10
  %12 = add nuw nsw i64 %spec.store.select, 16
  %.not = icmp eq i64 %2, %12
  br i1 %.not, label %17, label %13

13:                                               ; preds = %9
  %14 = sub i64 %2, %12
  tail call void @CRYPTO_cbc128_decrypt(ptr noundef %0, ptr noundef %1, i64 noundef %14, ptr noundef %3, ptr noundef %4, ptr noundef %5) #5
  %15 = getelementptr inbounds nuw i8, ptr %0, i64 %14
  %16 = getelementptr inbounds nuw i8, ptr %1, i64 %14
  br label %17

17:                                               ; preds = %13, %9
  %.047 = phi ptr [ %16, %13 ], [ %1, %9 ]
  %.046 = phi ptr [ %15, %13 ], [ %0, %9 ]
  %18 = getelementptr inbounds nuw i8, ptr %7, i64 16
  call void %5(ptr noundef %.046, ptr noundef nonnull %18, ptr noundef %3) #5
  call void @llvm.memcpy.p0.p0.i64(ptr noundef nonnull align 8 dereferenceable(16) %7, ptr noundef nonnull align 8 dereferenceable(16) %18, i64 16, i1 false)
  %19 = getelementptr inbounds nuw i8, ptr %.046, i64 16
  call void @llvm.memcpy.p0.p0.i64(ptr noundef nonnull align 8 dereferenceable(1) %7, ptr noundef nonnull align 1 dereferenceable(1) %19, i64 %spec.store.select, i1 false)
  call void %5(ptr noundef nonnull %7, ptr noundef nonnull %7, ptr noundef %3) #5
  br label %20

20:                                               ; preds = %17, %20
  %.04551 = phi i64 [ 0, %17 ], [ %29, %20 ]
  %21 = getelementptr inbounds nuw i8, ptr %.046, i64 %.04551
  %22 = load i8, ptr %21, align 1, !tbaa !3
  %23 = getelementptr inbounds nuw [32 x i8], ptr %7, i64 0, i64 %.04551
  %24 = load i8, ptr %23, align 1, !tbaa !3
  %25 = getelementptr inbounds nuw i8, ptr %4, i64 %.04551
  %26 = load i8, ptr %25, align 1, !tbaa !3
  %27 = xor i8 %26, %24
  %28 = getelementptr inbounds nuw i8, ptr %.047, i64 %.04551
  store i8 %27, ptr %28, align 1, !tbaa !3
  store i8 %22, ptr %25, align 1, !tbaa !3
  %29 = add nuw nsw i64 %.04551, 1
  %exitcond.not = icmp eq i64 %29, 16
  br i1 %exitcond.not, label %.lr.ph, label %20, !llvm.loop !9

.lr.ph:                                           ; preds = %20, %.lr.ph
  %.152 = phi i64 [ %36, %.lr.ph ], [ 16, %20 ]
  %30 = getelementptr inbounds nuw [32 x i8], ptr %7, i64 0, i64 %.152
  %31 = load i8, ptr %30, align 1, !tbaa !3
  %32 = getelementptr inbounds nuw i8, ptr %.046, i64 %.152
  %33 = load i8, ptr %32, align 1, !tbaa !3
  %34 = xor i8 %33, %31
  %35 = getelementptr inbounds nuw i8, ptr %.047, i64 %.152
  store i8 %34, ptr %35, align 1, !tbaa !3
  %36 = add nuw nsw i64 %.152, 1
  %exitcond53.not = icmp eq i64 %36, %12
  br i1 %exitcond53.not, label %._crit_edge, label %.lr.ph, !llvm.loop !10

._crit_edge:                                      ; preds = %.lr.ph
  %37 = add i64 %2, 16
  br label %38

38:                                               ; preds = %6, %._crit_edge
  %.0 = phi i64 [ %37, %._crit_edge ], [ 0, %6 ]
  call void @llvm.lifetime.end.p0(i64 32, ptr nonnull %7) #5
  ret i64 %.0
}